target datalayout = "e-m:e-p270:32:32-p271:32:32-p272:64:64-i64:64-i128:128-f80:128-n8:16:32:64-S128"
target triple = "x86_64-pc-linux-gnu"

%"class.__gnu_cxx::__normal_iterator.970" = type { ptr }

; Function Attrs: mustprogress nounwind uwtable
define linkonce_odr dso_local noundef nonnull align 8 dereferenceable(8) ptr @_ZNK9__gnu_cxx17__normal_iteratorIPcNSt7__cxx1112basic_stringIcSt11char_traitsIcESaIcEEEE4baseEv(ptr noundef nonnull align 8 dereferenceable(8) %0) #4 comdat align 2 {
  %2 = alloca ptr, align 8
  store ptr %0, ptr %2, align 8
  %3 = load ptr, ptr %2, align 8
  %4 = getelementptr inbounds %"class.__gnu_cxx::__normal_iterator.970", ptr %3, i32 0, i32 0
  ret ptr %4
}

; Function Attrs: mustprogress nounwind uwtable
define linkonce_odr dso_local noundef nonnull align 8 dereferenceable(8) ptr @_ZN9__gnu_cxx17__normal_iteratorIPcNSt7__cxx1112basic_stringIcSt11char_traitsIcESaIcEEEEppEv(ptr noundef nonnull align 8 dereferenceable(8) %0) #4 comdat align 2 {
  %2 = alloca ptr, align 8
  store ptr %0, ptr %2, align 8
  %3 = load ptr, ptr %2, align 8
  %4 = getelementptr inbounds %"class.__gnu_cxx::__normal_iterator.970", ptr %3, i32 0, i32 0
  %5 = load ptr, ptr %4, align 8
  %6 = getelementptr inbounds i8, ptr %5, i32 1
  store ptr %6, ptr %4, align 8
  ret ptr %3
}

; Function Attrs: mustprogress nounwind uwtable
define linkonce_odr dso_local noundef nonnull align 1 dereferenceable(1) ptr @_ZNK9__gnu_cxx17__normal_iteratorIPcNSt7__cxx1112basic_stringIcSt11char_traitsIcESaIcEEEEdeEv(ptr noundef nonnull align 8 dereferenceable(8) %0) #4 comdat align 2 {
  %2 = alloca ptr, align 8
  store ptr %0, ptr %2, align 8
  %3 = load ptr, ptr %2, align 8
  %4 = getelementptr inbounds %"class.__gnu_cxx::__normal_iterator.970", ptr %3, i32 0, i32 0
  %5 = load ptr, ptr %4, align 8
  ret ptr %5
}

; Function Attrs: mustprogress nounwind uwtable
define linkonce_odr dso_local noundef zeroext i1 @_ZN9__gnu_cxxneIPcNSt7__cxx1112basic_stringIcSt11char_traitsIcESaIcEEEEEbRKNS_17__normal_iteratorIT_T0_EESD_(ptr noundef nonnull align 8 dereferenceable(8) %0, ptr noundef nonnull align 8 dereferenceable(8) %1) #4 comdat {
  %3 = alloca ptr, align 8
  %4 = alloca ptr, align 8
  store ptr %0, ptr %3, align 8
  store ptr %1, ptr %4, align 8
  %5 = load ptr, ptr %3, align 8
  %6 = call noundef nonnull align 8 dereferenceable(8) ptr @_ZNK9__gnu_cxx17__normal_iteratorIPcNSt7__cxx1112basic_stringIcSt11char_traitsIcESaIcEEEE4baseEv(ptr noundef nonnull align 8 dereferenceable(8) %5) #3
  %7 = load ptr, ptr %6, align 8
  %8 = load ptr, ptr %4, align 8
  %9 = call noundef nonnull align 8 dereferenceable(8) ptr @_ZNK9__gnu_cxx17__normal_iteratorIPcNSt7__cxx1112basic_stringIcSt11char_traitsIcESaIcEEEE4baseEv(ptr noundef nonnull align 8 dereferenceable(8) %8) #3
  %10 = load ptr, ptr %9, align 8
  %11 = icmp ne ptr %7, %10
  ret i1 %11
}

; Function Attrs: mustprogress nounwind uwtable
define linkonce_odr dso_local void @_ZN9__gnu_cxx17__normal_iteratorIPcNSt7__cxx1112basic_stringIcSt11char_traitsIcESaIcEEEEC2ERKS1_(ptr noundef nonnull align 8 dereferenceable(8) %0, ptr noundef nonnull align 8 dereferenceable(8) %1) unnamed_addr #4 comdat align 2 {
  %3 = alloca ptr, align 8
  %4 = alloca ptr, align 8
  store ptr %0, ptr %3, align 8
  store ptr %1, ptr %4, align 8
  %5 = load ptr, ptr %3, align 8
  %6 = getelementptr inbounds %"class.__gnu_cxx::__normal_iterator.970", ptr %5, i32 0, i32 0
  %7 = load ptr, ptr %4, align 8
  %8 = load ptr, ptr %7, align 8
  store ptr %8, ptr %6, align 8
  ret void
}

; Function Attrs: mustprogress nounwind uwtable
define linkonce_odr dso_local void @_ZSt7replaceIN9__gnu_cxx17__normal_iteratorIPcNSt7__cxx1112basic_stringIcSt11char_traitsIcESaIcEEEEEcEvT_SA_RKT0_SD_(ptr %0, ptr %1, ptr noundef nonnull align 1 dereferenceable(1) %2, ptr noundef nonnull align 1 dereferenceable(1) %3) #4 comdat {
  %5 = alloca %"class.__gnu_cxx::__normal_iterator.970", align 8
  %6 = alloca %"class.__gnu_cxx::__normal_iterator.970", align 8
  %7 = alloca ptr, align 8
  %8 = alloca ptr, align 8
  %9 = getelementptr inbounds %"class.__gnu_cxx::__normal_iterator.970", ptr %5, i32 0, i32 0
  store ptr %0, ptr %9, align 8
  %10 = getelementptr inbounds %"class.__gnu_cxx::__normal_iterator.970", ptr %6, i32 0, i32 0
  store ptr %1, ptr %10, align 8
  store ptr %2, ptr %7, align 8
  store ptr %3, ptr %8, align 8
  br label %11

11:                                               ; preds = %26, %4
  %12 = call noundef zeroext i1 @_ZN9__gnu_cxxneIPcNSt7__cxx1112basic_stringIcSt11char_traitsIcESaIcEEEEEbRKNS_17__normal_iteratorIT_T0_EESD_(ptr noundef nonnull align 8 dereferenceable(8) %5, ptr noundef nonnull align 8 dereferenceable(8) %6) #3
  br i1 %12, label %13, label %28

13:                                               ; preds = %11
  %14 = call noundef nonnull align 1 dereferenceable(1) ptr @_ZNK9__gnu_cxx17__normal_iteratorIPcNSt7__cxx1112basic_stringIcSt11char_traitsIcESaIcEEEEdeEv(ptr noundef nonnull align 8 dereferenceable(8) %5) #3
  %15 = load i8, ptr %14, align 1
  %16 = sext i8 %15 to i32
  %17 = load ptr, ptr %7, align 8
  %18 = load i8, ptr %17, align 1
  %19 = sext i8 %18 to i32
  %20 = icmp eq i32 %16, %19
  br i1 %20, label %21, label %25

21:                                               ; preds = %13
  %22 = load ptr, ptr %8, align 8
  %23 = load i8, ptr %22, align 1
  %24 = call noundef nonnull align 1 dereferenceable(1) ptr @_ZNK9__gnu_cxx17__normal_iteratorIPcNSt7__cxx1112basic_stringIcSt11char_traitsIcESaIcEEEEdeEv(ptr noundef nonnull align 8 dereferenceable(8) %5) #3
  store i8 %23, ptr %24, align 1
  br label %25

25:                                               ; preds = %21, %13
  br label %26

26:                                               ; preds = %25
  %27 = call noundef nonnull align 8 dereferenceable(8) ptr @_ZN9__gnu_cxx17__normal_iteratorIPcNSt7__cxx1112basic_stringIcSt11char_traitsIcESaIcEEEEppEv(ptr noundef nonnull align 8 dereferenceable(8) %5) #3
  br label %11, !llvm.loop !54

28:                                               ; preds = %11
  ret void
}

; Function Attrs: mustprogress nounwind uwtable
define linkonce_odr dso_local ptr @_ZNK9__gnu_cxx17__normal_iteratorIPcNSt7__cxx1112basic_stringIcSt11char_traitsIcESaIcEEEEplEl(ptr noundef nonnull align 8 dereferenceable(8) %0, i64 noundef %1) #4 comdat align 2 {
  %3 = alloca %"class.__gnu_cxx::__normal_iterator.970", align 8
  %4 = alloca ptr, align 8
  %5 = alloca i64, align 8
  %6 = alloca ptr, align 8
  store ptr %0, ptr %4, align 8
  store i64 %1, ptr %5, align 8
  %7 = load ptr, ptr %4, align 8
  %8 = getelementptr inbounds %"class.__gnu_cxx::__normal_iterator.970", ptr %7, i32 0, i32 0
  %9 = load ptr, ptr %8, align 8
  %10 = load i64, ptr %5, align 8
  %11 = getelementptr inbounds i8, ptr %9, i64 %10
  store ptr %11, ptr %6, align 8
  call void @_ZN9__gnu_cxx17__normal_iteratorIPcNSt7__cxx1112basic_stringIcSt11char_traitsIcESaIcEEEEC2ERKS1_(ptr noundef nonnull align 8 dereferenceable(8) %3, ptr noundef nonnull align 8 dereferenceable(8) %6) #3
  %12 = getelementptr inbounds %"class.__gnu_cxx::__normal_iterator.970", ptr %3, i32 0, i32 0
  %13 = load ptr, ptr %12, align 8
  ret ptr %13
}

; Function Attrs: mustprogress uwtable
define internal void @_ZL15s_AddDefineFlagRKNSt7__cxx1112basic_stringIcSt11char_traitsIcESaIcEEERS4_(ptr noundef nonnull align 8 dereferenceable(32) %0, ptr noundef nonnull align 8 dereferenceable(32) %1) #5 {
  %3 = alloca ptr, align 8
  %4 = alloca ptr, align 8
  %5 = alloca i64, align 8
  %6 = alloca %"class.__gnu_cxx::__normal_iterator.970", align 8
  %7 = alloca %"class.__gnu_cxx::__normal_iterator.970", align 8
  %8 = alloca %"class.__gnu_cxx::__normal_iterator.970", align 8
  %9 = alloca %"class.__gnu_cxx::__normal_iterator.970", align 8
  %10 = alloca %"class.__gnu_cxx::__normal_iterator.970", align 8
  %11 = alloca i8, align 1
  %12 = alloca i8, align 1
  %13 = alloca %"class.__gnu_cxx::__normal_iterator.970", align 8
  %14 = alloca %"class.__gnu_cxx::__normal_iterator.970", align 8
  %15 = alloca i8, align 1
  %16 = alloca i8, align 1
  store ptr %0, ptr %3, align 8
  store ptr %1, ptr %4, align 8
  %17 = load ptr, ptr %4, align 8
  %18 = call noundef i64 @_ZNKSt7__cxx1112basic_stringIcSt11char_traitsIcESaIcEE4sizeEv(ptr noundef nonnull align 8 dereferenceable(32) %17) #3
  store i64 %18, ptr %5, align 8
  %19 = load ptr, ptr %4, align 8
  %20 = call noundef nonnull align 8 dereferenceable(32) ptr @_ZNSt7__cxx1112basic_stringIcSt11char_traitsIcESaIcEEpLEc(ptr noundef nonnull align 8 dereferenceable(32) %19, i8 noundef signext 32)
  %21 = load ptr, ptr %3, align 8
  %22 = load ptr, ptr %4, align 8
  %23 = call noundef nonnull align 8 dereferenceable(32) ptr @_ZNSt7__cxx1112basic_stringIcSt11char_traitsIcESaIcEEpLERKS4_(ptr noundef nonnull align 8 dereferenceable(32) %22, ptr noundef nonnull align 8 dereferenceable(32) %21)
  %24 = load ptr, ptr %4, align 8
  %25 = call ptr @_ZNSt7__cxx1112basic_stringIcSt11char_traitsIcESaIcEE5beginEv(ptr noundef nonnull align 8 dereferenceable(32) %24) #3
  %26 = getelementptr inbounds %"class.__gnu_cxx::__normal_iterator.970", ptr %8, i32 0, i32 0
  store ptr %25, ptr %26, align 8
  %27 = load i64, ptr %5, align 8
  %28 = call ptr @_ZNK9__gnu_cxx17__normal_iteratorIPcNSt7__cxx1112basic_stringIcSt11char_traitsIcESaIcEEEEplEl(ptr noundef nonnull align 8 dereferenceable(8) %8, i64 noundef %27) #3
  %29 = getelementptr inbounds %"class.__gnu_cxx::__normal_iterator.970", ptr %7, i32 0, i32 0
  store ptr %28, ptr %29, align 8
  %30 = call ptr @_ZNK9__gnu_cxx17__normal_iteratorIPcNSt7__cxx1112basic_stringIcSt11char_traitsIcESaIcEEEEplEl(ptr noundef nonnull align 8 dereferenceable(8) %7, i64 noundef 1) #3
  %31 = getelementptr inbounds %"class.__gnu_cxx::__normal_iterator.970", ptr %6, i32 0, i32 0
  store ptr %30, ptr %31, align 8
  call void @llvm.memcpy.p0.p0.i64(ptr align 8 %9, ptr align 8 %6, i64 8, i1 false)
  %32 = load ptr, ptr %4, align 8
  %33 = call ptr @_ZNSt7__cxx1112basic_stringIcSt11char_traitsIcESaIcEE3endEv(ptr noundef nonnull align 8 dereferenceable(32) %32) #3
  %34 = getelementptr inbounds %"class.__gnu_cxx::__normal_iterator.970", ptr %10, i32 0, i32 0
  store ptr %33, ptr %34, align 8
  store i8 10, ptr %11, align 1
  store i8 32, ptr %12, align 1
  %35 = getelementptr inbounds %"class.__gnu_cxx::__normal_iterator.970", ptr %9, i32 0, i32 0
  %36 = load ptr, ptr %35, align 8
  %37 = getelementptr inbounds %"class.__gnu_cxx::__normal_iterator.970", ptr %10, i32 0, i32 0
  %38 = load ptr, ptr %37, align 8
  call void @_ZSt7replaceIN9__gnu_cxx17__normal_iteratorIPcNSt7__cxx1112basic_stringIcSt11char_traitsIcESaIcEEEEEcEvT_SA_RKT0_SD_(ptr %36, ptr %38, ptr noundef nonnull align 1 dereferenceable(1) %11, ptr noundef nonnull align 1 dereferenceable(1) %12)
  call void @llvm.memcpy.p0.p0.i64(ptr align 8 %13, ptr align 8 %6, i64 8, i1 false)
  %39 = load ptr, ptr %4, align 8
  %40 = call ptr @_ZNSt7__cxx1112basic_stringIcSt11char_traitsIcESaIcEE3endEv(ptr noundef nonnull align 8 dereferenceable(32) %39) #3
  %41 = getelementptr inbounds %"class.__gnu_cxx::__normal_iterator.970", ptr %14, i32 0, i32 0
  store ptr %40, ptr %41, align 8
  store i8 13, ptr %15, align 1
  store i8 32, ptr %16, align 1
  %42 = getelementptr inbounds %"class.__gnu_cxx::__normal_iterator.970", ptr %13, i32 0, i32 0
  %43 = load ptr, ptr %42, align 8
  %44 = getelementptr inbounds %"class.__gnu_cxx::__normal_iterator.970", ptr %14, i32 0, i32 0
  %45 = load ptr, ptr %44, align 8
  call void @_ZSt7replaceIN9__gnu_cxx17__normal_iteratorIPcNSt7__cxx1112basic_stringIcSt11char_traitsIcESaIcEEEEEcEvT_SA_RKT0_SD_(ptr %43, ptr %45, ptr noundef nonnull align 1 dereferenceable(1) %15, ptr noundef nonnull align 1 dereferenceable(1) %16)
  ret void
}