; Function Attrs: mustprogress uwtable
define internal fastcc void @_ZL15s_AddDefineFlagRKNSt7__cxx1112basic_stringIcSt11char_traitsIcESaIcEEERS4_(ptr noundef nonnull align 8 dereferenceable(32) %0, ptr noundef nonnull align 8 dereferenceable(32) %1) unnamed_addr #4 {
  %3 = tail call noundef i64 @_ZNKSt7__cxx1112basic_stringIcSt11char_traitsIcESaIcEE4sizeEv(ptr noundef nonnull align 8 dereferenceable(32) %1) #29
  %4 = tail call noundef nonnull align 8 dereferenceable(32) ptr @_ZNSt7__cxx1112basic_stringIcSt11char_traitsIcESaIcEEpLEc(ptr noundef nonnull align 8 dereferenceable(32) %1, i8 noundef signext 32)
  %5 = tail call noundef nonnull align 8 dereferenceable(32) ptr @_ZNSt7__cxx1112basic_stringIcSt11char_traitsIcESaIcEEpLERKS4_(ptr noundef nonnull align 8 dereferenceable(32) %1, ptr noundef nonnull align 8 dereferenceable(32) %0)
  %6 = tail call ptr @_ZNSt7__cxx1112basic_stringIcSt11char_traitsIcESaIcEE5beginEv(ptr noundef nonnull align 8 dereferenceable(32) %1) #29
  %7 = getelementptr inbounds i8, ptr %6, i64 %3
  %8 = getelementptr inbounds i8, ptr %7, i64 1
  %9 = tail call ptr @_ZNSt7__cxx1112basic_stringIcSt11char_traitsIcESaIcEE3endEv(ptr noundef nonnull align 8 dereferenceable(32) %1) #29
  %.not6.i = icmp eq ptr %8, %9
  br i1 %.not6.i, label %_ZSt7replaceIN9__gnu_cxx17__normal_iteratorIPcNSt7__cxx1112basic_stringIcSt11char_traitsIcESaIcEEEEEcEvT_SA_RKT0_SD_.exit, label %.lr.ph.i

.lr.ph.i:                                         ; preds = %2, %13
  %.sroa.02.07.i = phi ptr [ %14, %13 ], [ %8, %2 ]
  %10 = load i8, ptr %.sroa.02.07.i, align 1
  %11 = icmp eq i8 %10, 10
  br i1 %11, label %12, label %13

12:                                               ; preds = %.lr.ph.i
  store i8 32, ptr %.sroa.02.07.i, align 1
  br label %13

13:                                               ; preds = %12, %.lr.ph.i
  %14 = getelementptr inbounds i8, ptr %.sroa.02.07.i, i64 1
  %.not.i = icmp eq ptr %14, %9
  br i1 %.not.i, label %_ZSt7replaceIN9__gnu_cxx17__normal_iteratorIPcNSt7__cxx1112basic_stringIcSt11char_traitsIcESaIcEEEEEcEvT_SA_RKT0_SD_.exit, label %.lr.ph.i, !llvm.loop !152

_ZSt7replaceIN9__gnu_cxx17__normal_iteratorIPcNSt7__cxx1112basic_stringIcSt11char_traitsIcESaIcEEEEEcEvT_SA_RKT0_SD_.exit: ; preds = %13, %2
  %15 = tail call ptr @_ZNSt7__cxx1112basic_stringIcSt11char_traitsIcESaIcEE3endEv(ptr noundef nonnull align 8 dereferenceable(32) %1) #29
  %.not6.i11 = icmp eq ptr %8, %15
  br i1 %.not6.i11, label %_ZSt7replaceIN9__gnu_cxx17__normal_iteratorIPcNSt7__cxx1112basic_stringIcSt11char_traitsIcESaIcEEEEEcEvT_SA_RKT0_SD_.exit15, label %.lr.ph.i12

.lr.ph.i12:                                       ; preds = %_ZSt7replaceIN9__gnu_cxx17__normal_iteratorIPcNSt7__cxx1112basic_stringIcSt11char_traitsIcESaIcEEEEEcEvT_SA_RKT0_SD_.exit, %19
  %.sroa.02.07.i13 = phi ptr [ %20, %19 ], [ %8, %_ZSt7replaceIN9__gnu_cxx17__normal_iteratorIPcNSt7__cxx1112basic_stringIcSt11char_traitsIcESaIcEEEEEcEvT_SA_RKT0_SD_.exit ]
  %16 = load i8, ptr %.sroa.02.07.i13, align 1
  %17 = icmp eq i8 %16, 13
  br i1 %17, label %18, label %19

18:                                               ; preds = %.lr.ph.i12
  store i8 32, ptr %.sroa.02.07.i13, align 1
  br label %19

19:                                               ; preds = %18, %.lr.ph.i12
  %20 = getelementptr inbounds i8, ptr %.sroa.02.07.i13, i64 1
  %.not.i14 = icmp eq ptr %20, %15
  br i1 %.not.i14, label %_ZSt7replaceIN9__gnu_cxx17__normal_iteratorIPcNSt7__cxx1112basic_stringIcSt11char_traitsIcESaIcEEEEEcEvT_SA_RKT0_SD_.exit15, label %.lr.ph.i12, !llvm.loop !152

_ZSt7replaceIN9__gnu_cxx17__normal_iteratorIPcNSt7__cxx1112basic_stringIcSt11char_traitsIcESaIcEEEEEcEvT_SA_RKT0_SD_.exit15: ; preds = %19, %_ZSt7replaceIN9__gnu_cxx17__normal_iteratorIPcNSt7__cxx1112basic_stringIcSt11char_traitsIcESaIcEEEEEcEvT_SA_RKT0_SD_.exit
  ret void
}